; Function Attrs: mustprogress uwtable
define void @_ZN6google8protobuf7Message21CheckTypeAndMergeFromERKNS0_11MessageLiteE(ptr noundef nonnull align 8 dereferenceable(16) %this, ptr noundef nonnull align 8 dereferenceable(16) %other) unnamed_addr #3 align 2 {
entry:
  %vtable.i = load ptr, ptr %this, align 8
  %vfn.i = getelementptr inbounds i8, ptr %vtable.i, i64 64
  %0 = load ptr, ptr %vfn.i, align 8
  %call.i = tail call noundef ptr %0(ptr noundef nonnull align 8 dereferenceable(16) %this)
  %vtable2.i = load ptr, ptr %other, align 8
  %vfn3.i = getelementptr inbounds i8, ptr %vtable2.i, i64 64
  %1 = load ptr, ptr %vfn3.i, align 8
  %call4.i = tail call noundef ptr %1(ptr noundef nonnull align 8 dereferenceable(16) %other)
  %cmp.i = icmp ne ptr %call.i, null
  %cmp5.not.i = icmp eq ptr %call.i, %call4.i
  %or.cond.i = and i1 %cmp.i, %cmp5.not.i
  br i1 %or.cond.i, label %if.else.i, label %if.then.i

if.then.i:                                        ; preds = %entry
  tail call void @_ZN6google8protobuf8internal13ReflectionOps5MergeERKNS0_7MessageEPS3_(ptr noundef nonnull align 8 dereferenceable(16) %other, ptr noundef nonnull %this)
  br label %_ZN6google8protobuf7Message9MergeFromERKS1_.exit

if.else.i:                                        ; preds = %entry
  %merge_to_from.i = getelementptr inbounds i8, ptr %call.i, i64 16
  %2 = load ptr, ptr %merge_to_from.i, align 8
  tail call void %2(ptr noundef nonnull align 8 dereferenceable(16) %this, ptr noundef nonnull align 8 dereferenceable(16) %other)
  br label %_ZN6google8protobuf7Message9MergeFromERKS1_.exit

_ZN6google8protobuf7Message9MergeFromERKS1_.exit: ; preds = %if.then.i, %if.else.i
  ret void
}